
Merging program properties

Updated property 0xc0010001 (0x9) to merge /home/steven/mine/src/user/Build/init.o (0x1) and /home/steven/mine/src/user/Build/printf.o (0x9)
Updated property 0xc0010002 (0x1) to merge /home/steven/mine/src/user/Build/init.o (0x0) and /home/steven/mine/src/user/Build/printf.o (0x1)
Updated property 0xc0010001 (0x9) to merge /home/steven/mine/src/user/Build/init.o (0x9) and /home/steven/mine/src/user/Build/string.o (0x1)
Updated property 0xc0010001 (0x9) to merge /home/steven/mine/src/user/Build/init.o (0x9) and /home/steven/mine/src/user/Build/dirent.o (0x1)
Updated property 0xc0010002 (0x1) to merge /home/steven/mine/src/user/Build/init.o (0x1) and /home/steven/mine/src/user/Build/dirent.o (0x0)
Updated property 0xc0010001 (0x9) to merge /home/steven/mine/src/user/Build/init.o (0x9) and /home/steven/mine/src/user/Build/wait.o (0x1)
Updated property 0xc0010002 (0x1) to merge /home/steven/mine/src/user/Build/init.o (0x1) and /home/steven/mine/src/user/Build/wait.o (0x0)
Updated property 0xc0010001 (0x9) to merge /home/steven/mine/src/user/Build/init.o (0x9) and /home/steven/mine/src/user/Build/signal.o (0x1)
Updated property 0xc0010002 (0x1) to merge /home/steven/mine/src/user/Build/init.o (0x1) and /home/steven/mine/src/user/Build/signal.o (0x0)
Updated property 0xc0010001 (0x9) to merge /home/steven/mine/src/user/Build/init.o (0x9) and /home/steven/mine/src/user/Build/sig_restore.o (0x1)
Updated property 0xc0010002 (0x1) to merge /home/steven/mine/src/user/Build/init.o (0x1) and /home/steven/mine/src/user/Build/sig_restore.o (0x0)

Discarded input sections

 .note.gnu.property
                0x0000000000000000       0x30 /home/steven/mine/src/user/Build/syscall.o
 .note.gnu.property
                0x0000000000000000       0x30 /home/steven/mine/src/user/Build/errno.o
 .note.gnu.property
                0x0000000000000000       0x30 /home/steven/mine/src/user/Build/malloc.o
 .note.gnu.property
                0x0000000000000000       0x30 /home/steven/mine/src/user/Build/keyboard.o
 .note.gnu.property
                0x0000000000000000       0x30 /home/steven/mine/src/user/Build/printf.o
 .note.gnu.property
                0x0000000000000000       0x30 /home/steven/mine/src/user/Build/string.o
 .note.gnu.property
                0x0000000000000000       0x30 /home/steven/mine/src/user/Build/dirent.o
 .note.gnu.property
                0x0000000000000000       0x30 /home/steven/mine/src/user/Build/wait.o
 .note.gnu.property
                0x0000000000000000       0x30 /home/steven/mine/src/user/Build/signal.o
 .note.gnu.property
                0x0000000000000000       0x30 /home/steven/mine/src/user/Build/sig_restore.o

Memory Configuration

Name             Origin             Length             Attributes
*default*        0x0000000000000000 0xffffffffffffffff

Linker script and memory map

TARGET(elf64-x86-64)
LOAD /home/steven/mine/src/user/Build/init.o
LOAD /home/steven/mine/src/user/Build/syscall.o
LOAD /home/steven/mine/src/user/Build/errno.o
LOAD /home/steven/mine/src/user/Build/malloc.o
LOAD /home/steven/mine/src/user/Build/keyboard.o
LOAD /home/steven/mine/src/user/Build/printf.o
LOAD /home/steven/mine/src/user/Build/string.o
LOAD /home/steven/mine/src/user/Build/dirent.o
LOAD /home/steven/mine/src/user/Build/wait.o
LOAD /home/steven/mine/src/user/Build/signal.o
LOAD /home/steven/mine/src/user/Build/sig_restore.o
                0x0000000000400000                . = 0x400000

.text           0x0000000000400000     0x2509
                0x0000000000400000                _text = .
 /home/steven/mine/src/user/Build/init.o(.text)
 .text          0x0000000000400000      0xfc0 /home/steven/mine/src/user/Build/init.o
                0x0000000000400000                main
                0x0000000000400006                sig_handler
                0x0000000000400037                get_scancode
                0x0000000000400069                analysis_keycode
                0x00000000004003be                cd_command
                0x000000000040068e                ls_command
                0x0000000000400768                pwd_command
                0x00000000004007b9                cat_command
                0x00000000004009ba                touch_command
                0x00000000004009c8                rm_command
                0x00000000004009d6                mkdir_command
                0x00000000004009e4                rmdir_command
                0x00000000004009f2                exec_command
                0x0000000000400c44                reboot_command
                0x0000000000400c6c                find_cmd
                0x0000000000400ccc                read_line
                0x0000000000400dc7                parse_command
                0x0000000000400f80                run_command
 *(.text)
 .text          0x0000000000400fc0      0x141 /home/steven/mine/src/user/Build/syscall.o
                0x0000000000400fc0                putstring
                0x0000000000400fd0                open
                0x0000000000400fe0                close
                0x0000000000400ff0                read
                0x0000000000401000                write
                0x0000000000401010                lseek
                0x0000000000401020                fork
                0x0000000000401030                vfork
                0x0000000000401040                execve
                0x0000000000401050                exit
                0x000000000040105d                wait4
                0x000000000040106a                brk
                0x0000000000401077                reboot
                0x0000000000401084                chdir
                0x0000000000401091                getdents
                0x000000000040109e                SIGNAL
                0x00000000004010ab                KILL
                0x00000000004010b8                sleep
                0x00000000004010c5                getpid
 .text          0x0000000000401101        0x0 /home/steven/mine/src/user/Build/errno.o
 .text          0x0000000000401101      0x17d /home/steven/mine/src/user/Build/malloc.o
                0x0000000000401101                malloc
                0x0000000000401273                free
 .text          0x000000000040127e        0x0 /home/steven/mine/src/user/Build/keyboard.o
 .text          0x000000000040127e      0xda4 /home/steven/mine/src/user/Build/printf.o
                0x000000000040127e                strlen
                0x00000000004012ad                skip_atoi
                0x0000000000401586                vsprintf
                0x0000000000401e77                sprintf
                0x0000000000401f3c                puts
                0x0000000000401f47                printf
 .text          0x0000000000402022      0x24c /home/steven/mine/src/user/Build/string.o
                0x0000000000402022                memcpy
                0x000000000040207c                memcmp
                0x00000000004020b9                memset
                0x000000000040212f                strcpy
                0x0000000000402156                strncpy
                0x0000000000402189                strcat
                0x00000000004021bc                strcmp
                0x00000000004021f7                strncmp
 .text          0x000000000040226e      0x155 /home/steven/mine/src/user/Build/dirent.o
                0x000000000040226e                opendir
                0x000000000040230d                closedir
                0x000000000040234c                readdir
 .text          0x00000000004023c3       0x64 /home/steven/mine/src/user/Build/wait.o
                0x00000000004023c3                wait
                0x00000000004023f3                waitpid
 .text          0x0000000000402427       0xcd /home/steven/mine/src/user/Build/signal.o
                0x0000000000402427                signal
                0x0000000000402490                kill
 .text          0x00000000004024f4       0x15 /home/steven/mine/src/user/Build/sig_restore.o
                0x00000000004024f4                sig_restore
                0x0000000000402509                _etext = .

.iplt           0x0000000000402509        0x0
 .iplt          0x0000000000402509        0x0 /home/steven/mine/src/user/Build/init.o
                0x0000000000402510                . = ALIGN (0x8)

.data           0x0000000000402520      0x4c0
                0x0000000000402520                _data = .
 *(.data)
 .data          0x0000000000402520       0xa0 /home/steven/mine/src/user/Build/init.o
                0x0000000000402520                shell_internal_cmd
 .data          0x00000000004025c0        0x0 /home/steven/mine/src/user/Build/syscall.o
 .data          0x00000000004025c0        0x0 /home/steven/mine/src/user/Build/errno.o
 .data          0x00000000004025c0        0x0 /home/steven/mine/src/user/Build/malloc.o
 .data          0x00000000004025c0      0x420 /home/steven/mine/src/user/Build/keyboard.o
                0x00000000004025c0                pausebreak_scode
                0x00000000004025e0                keycode_map_normal
 .data          0x00000000004029e0        0x0 /home/steven/mine/src/user/Build/printf.o
 .data          0x00000000004029e0        0x0 /home/steven/mine/src/user/Build/string.o
 .data          0x00000000004029e0        0x0 /home/steven/mine/src/user/Build/dirent.o
 .data          0x00000000004029e0        0x0 /home/steven/mine/src/user/Build/wait.o
 .data          0x00000000004029e0        0x0 /home/steven/mine/src/user/Build/signal.o
 .data          0x00000000004029e0        0x0 /home/steven/mine/src/user/Build/sig_restore.o
                0x00000000004029e0                _edata = .

.got            0x00000000004029e0        0x0
 .got           0x00000000004029e0        0x0 /home/steven/mine/src/user/Build/init.o

.got.plt        0x00000000004029e0        0x0
 .got.plt       0x00000000004029e0        0x0 /home/steven/mine/src/user/Build/init.o

.igot.plt       0x00000000004029e0        0x0
 .igot.plt      0x00000000004029e0        0x0 /home/steven/mine/src/user/Build/init.o

.rodata         0x00000000004029e0      0x4c7
                0x00000000004029e0                _rodata = .
 *(.rodata)
 .rodata        0x00000000004029e0      0x11a /home/steven/mine/src/user/Build/init.o
                0x0000000000402a2f                file_type
 .rodata        0x0000000000402afa       0x12 /home/steven/mine/src/user/Build/malloc.o
 *fill*         0x0000000000402b0c        0x4 
 .rodata        0x0000000000402b10      0x378 /home/steven/mine/src/user/Build/printf.o
 .rodata        0x0000000000402e88       0x1f /home/steven/mine/src/user/Build/signal.o
                0x0000000000402ea7                _erodata = .

.eh_frame       0x0000000000402ea8      0x580
 .eh_frame      0x0000000000402ea8      0x258 /home/steven/mine/src/user/Build/init.o
 .eh_frame      0x0000000000403100       0x40 /home/steven/mine/src/user/Build/malloc.o
                                         0x58 (size before relaxing)
 .eh_frame      0x0000000000403140       0xe0 /home/steven/mine/src/user/Build/printf.o
                                         0xf8 (size before relaxing)
 .eh_frame      0x0000000000403220      0x128 /home/steven/mine/src/user/Build/string.o
                                        0x140 (size before relaxing)
 .eh_frame      0x0000000000403348       0x60 /home/steven/mine/src/user/Build/dirent.o
                                         0x78 (size before relaxing)
 .eh_frame      0x00000000004033a8       0x40 /home/steven/mine/src/user/Build/wait.o
                                         0x58 (size before relaxing)
 .eh_frame      0x00000000004033e8       0x40 /home/steven/mine/src/user/Build/signal.o
                                         0x58 (size before relaxing)

.note.gnu.property
                0x0000000000403428       0x30
 .note.gnu.property
                0x0000000000403428       0x30 /home/steven/mine/src/user/Build/init.o

.rela.dyn       0x0000000000403458        0x0
 .rela.got      0x0000000000403458        0x0 /home/steven/mine/src/user/Build/init.o
 .rela.iplt     0x0000000000403458        0x0 /home/steven/mine/src/user/Build/init.o

.bss            0x0000000000403458       0x40
                0x0000000000403458                _bss = .
 *(.bss)
 .bss           0x0000000000403458        0xc /home/steven/mine/src/user/Build/init.o
                0x0000000000403458                current_dir
                0x0000000000403460                sk
 .bss           0x0000000000403464        0x0 /home/steven/mine/src/user/Build/syscall.o
 .bss           0x0000000000403464        0x4 /home/steven/mine/src/user/Build/errno.o
                0x0000000000403464                errno
 .bss           0x0000000000403468       0x18 /home/steven/mine/src/user/Build/malloc.o
 .bss           0x0000000000403480       0x18 /home/steven/mine/src/user/Build/keyboard.o
                0x0000000000403480                shift_l
                0x0000000000403484                shift_r
                0x0000000000403488                ctrl_l
                0x000000000040348c                ctrl_r
                0x0000000000403490                alt_l
                0x0000000000403494                alt_r
 .bss           0x0000000000403498        0x0 /home/steven/mine/src/user/Build/printf.o
 .bss           0x0000000000403498        0x0 /home/steven/mine/src/user/Build/string.o
 .bss           0x0000000000403498        0x0 /home/steven/mine/src/user/Build/dirent.o
 .bss           0x0000000000403498        0x0 /home/steven/mine/src/user/Build/wait.o
 .bss           0x0000000000403498        0x0 /home/steven/mine/src/user/Build/signal.o
 .bss           0x0000000000403498        0x0 /home/steven/mine/src/user/Build/sig_restore.o
                0x0000000000403498                _ebss = .
                0x0000000000403498                _end = .
OUTPUT(/home/steven/mine/src/user/Build/init.bin elf64-x86-64)

.comment        0x0000000000000000       0x1b
 .comment       0x0000000000000000       0x1b /home/steven/mine/src/user/Build/init.o
                                         0x1c (size before relaxing)
 .comment       0x000000000000001b       0x1c /home/steven/mine/src/user/Build/syscall.o
 .comment       0x000000000000001b       0x1c /home/steven/mine/src/user/Build/errno.o
 .comment       0x000000000000001b       0x1c /home/steven/mine/src/user/Build/malloc.o
 .comment       0x000000000000001b       0x1c /home/steven/mine/src/user/Build/keyboard.o
 .comment       0x000000000000001b       0x1c /home/steven/mine/src/user/Build/printf.o
 .comment       0x000000000000001b       0x1c /home/steven/mine/src/user/Build/string.o
 .comment       0x000000000000001b       0x1c /home/steven/mine/src/user/Build/dirent.o
 .comment       0x000000000000001b       0x1c /home/steven/mine/src/user/Build/wait.o
 .comment       0x000000000000001b       0x1c /home/steven/mine/src/user/Build/signal.o

.note.GNU-stack
                0x0000000000000000        0x0
 .note.GNU-stack
                0x0000000000000000        0x0 /home/steven/mine/src/user/Build/init.o
 .note.GNU-stack
                0x0000000000000000        0x0 /home/steven/mine/src/user/Build/syscall.o
 .note.GNU-stack
                0x0000000000000000        0x0 /home/steven/mine/src/user/Build/errno.o
 .note.GNU-stack
                0x0000000000000000        0x0 /home/steven/mine/src/user/Build/malloc.o
 .note.GNU-stack
                0x0000000000000000        0x0 /home/steven/mine/src/user/Build/keyboard.o
 .note.GNU-stack
                0x0000000000000000        0x0 /home/steven/mine/src/user/Build/printf.o
 .note.GNU-stack
                0x0000000000000000        0x0 /home/steven/mine/src/user/Build/string.o
 .note.GNU-stack
                0x0000000000000000        0x0 /home/steven/mine/src/user/Build/dirent.o
 .note.GNU-stack
                0x0000000000000000        0x0 /home/steven/mine/src/user/Build/wait.o
 .note.GNU-stack
                0x0000000000000000        0x0 /home/steven/mine/src/user/Build/signal.o
